; Function Attrs: mustprogress nofree nounwind willreturn memory(read, inaccessiblemem: none) uwtable
define internal range(i32 0, 2) i32 @config_name_cmp(ptr readnone captures(none) %0, ptr noundef readonly captures(none) %1, ptr noundef readonly captures(none) %2, ptr readnone captures(none) %3) #11 {
  %5 = getelementptr inbounds nuw i8, ptr %1, i64 16
  %6 = load ptr, ptr %5, align 8, !tbaa !4
  %7 = getelementptr inbounds nuw i8, ptr %6, i64 8
  %8 = load ptr, ptr %7, align 8, !tbaa !18
  %9 = getelementptr inbounds nuw i8, ptr %2, i64 16
  %10 = load ptr, ptr %9, align 8, !tbaa !4
  %11 = getelementptr inbounds nuw i8, ptr %10, i64 8
  %12 = load ptr, ptr %11, align 8, !tbaa !18
  %13 = tail call i32 @strcmp(ptr noundef nonnull dereferenceable(1) %8, ptr noundef nonnull dereferenceable(1) %12) #16
  %.not = icmp eq i32 %13, 0
  br i1 %.not, label %14, label %18

14:                                               ; preds = %4
  %15 = getelementptr inbounds nuw i8, ptr %6, i64 64
  %16 = getelementptr inbounds nuw i8, ptr %10, i64 64
  %bcmp.i = tail call i32 @bcmp(ptr noundef nonnull readonly dereferenceable(32) %15, ptr noundef nonnull readonly dereferenceable(32) %16, i64 32)
  %.not.i = icmp ne i32 %bcmp.i, 0
  %17 = zext i1 %.not.i to i32
  br label %18

18:                                               ; preds = %14, %4
  %19 = phi i32 [ 1, %4 ], [ %17, %14 ]
  ret i32 %19
}